Certificate:
    Data:
        Version: 3 (0x2)
        Serial Number: 1 (0x1)
        Signature Algorithm: sha256WithRSAEncryption
        Issuer: CN=devcert
        Validity
            Not Before: Apr 29 15:07:01 2020 GMT
            Not After : Aug  2 15:07:01 2022 GMT
        Subject: CN=localhost
        Subject Public Key Info:
            Public Key Algorithm: rsaEncryption
                RSA Public-Key: (2048 bit)
                Modulus:
                    00:da:bd:9b:3c:07:db:01:8b:89:39:ff:1e:72:3c:
                    9e:ca:bf:c7:44:01:af:c8:09:d6:f1:fc:75:5a:79:
                    79:3f:6b:3c:eb:2d:17:64:d7:29:28:be:d8:64:b7:
                    b0:4b:d0:6a:e6:58:e9:ea:0f:c5:83:e1:4b:fa:61:
                    71:0c:b4:3f:6e:06:e9:e4:0a:6c:88:67:6c:41:71:
                    65:c5:4b:5a:95:22:5a:65:5b:43:f2:b5:bb:90:d2:
                    83:72:43:3b:7c:8a:52:4e:2b:72:f3:32:76:29:07:
                    fb:7f:97:9f:d7:df:a4:de:aa:cb:2d:80:f0:a3:be:
                    b1:2f:b4:39:a3:74:ab:15:fb:e7:39:1c:84:b8:4f:
                    97:57:bf:35:8a:48:eb:f3:43:93:31:c0:2e:7d:cd:
                    b8:d7:3c:8d:56:a5:16:01:ed:62:8d:c5:44:e5:99:
                    c4:1d:c2:45:4d:35:15:cc:46:6c:92:52:02:72:9d:
                    eb:de:07:f6:d8:86:5a:1d:8d:c3:1e:83:3b:f1:df:
                    44:de:d4:44:cf:b2:e7:40:61:ba:99:4e:52:71:1c:
                    f3:d0:9e:1b:80:07:3e:dd:ec:37:a2:bf:08:1d:d0:
                    e9:79:6d:38:9c:20:63:4e:0d:05:d7:7f:2e:72:c9:
                    f6:30:8f:32:cc:7b:f0:19:6a:71:15:e4:95:e8:ef:
                    72:c7
                Exponent: 65537 (0x10001)
        X509v3 extensions:
            X509v3 Basic Constraints: critical
                CA:FALSE
            X509v3 Subject Key Identifier: 
                00:B6:74:18:30:1F:C0:ED:19:D4:2E:9E:B5:A8:7E:16:B6:2F:09:AC
            X509v3 Authority Key Identifier: 
                keyid:E7:EC:4C:D9:C7:8F:F8:97:63:E1:78:2E:1B:11:D0:86:49:B2:F9:4F
                DirName:/CN=devcert
                serial:67:98:08:80:B0:D1:50:B0:E8:69:B8:57:E0:4D:B3:56:D1:6D:8F:F5

            X509v3 Key Usage: critical
                Digital Signature, Key Encipherment
            X509v3 Extended Key Usage: 
                TLS Web Server Authentication
            X509v3 Subject Alternative Name: 
                DNS:localhost, DNS:*.localhost
    Signature Algorithm: sha256WithRSAEncryption
         7a:c9:5e:94:18:47:9d:7e:25:06:60:35:82:04:35:f4:8e:05:
         18:03:8b:4f:ce:e5:c4:e0:bb:5f:20:aa:b9:6f:87:1e:67:f0:
         ee:18:1a:39:04:28:bc:2e:ba:d6:f1:71:24:83:e8:9e:7a:2d:
         de:3a:5a:2e:8a:40:4a:9b:61:0d:5c:3e:4d:88:85:28:0b:da:
         98:95:e7:1b:72:89:0e:22:20:9a:65:c9:d2:17:88:94:f2:80:
         ff:ec:03:fe:2f:d0:e7:fe:31:a9:4d:0e:be:f0:fc:03:53:74:
         9e:8b:2d:25:2e:d1:e9:2e:6b:19:28:80:c0:40:74:2c:c6:9b:
         42:ae:57:99:ee:3b:08:7e:6e:c3:d4:b6:3f:df:05:1a:eb:2a:
         46:36:5a:bc:8b:62:d9:97:55:53:c9:13:12:52:ff:cc:4a:70:
         cc:2c:98:46:e1:a0:a8:0c:94:67:35:c9:c2:42:95:91:99:b0:
         bf:bf:d0:a4:0e:d9:aa:6c:ef:3e:15:16:d9:e2:da:b8:33:2b:
         64:e3:66:71:df:c6:80:7a:3e:24:ea:be:b1:cd:eb:57:27:21:
         4a:34:07:f5:94:c0:2f:e3:f7:ed:69:94:a1:c7:ae:bd:dd:69:
         1b:a2:ea:ff:58:0b:ef:c3:a9:98:d3:03:98:7c:27:eb:df:be:
         bc:c1:1b:1b
-----BEGIN CERTIFICATE-----
MIIDaTCCAlGgAwIBAgIBATANBgkqhkiG9w0BAQsFADASMRAwDgYDVQQDDAdkZXZj
ZXJ0MB4XDTIwMDQyOTE1MDcwMVoXDTIyMDgwMjE1MDcwMVowFDESMBAGA1UEAwwJ
bG9jYWxob3N0MIIBIjANBgkqhkiG9w0BAQEFAAOCAQ8AMIIBCgKCAQEA2r2bPAfb
AYuJOf8ecjyeyr/HRAGvyAnW8fx1Wnl5P2s86y0XZNcpKL7YZLewS9Bq5ljp6g/F
g+FL+mFxDLQ/bgbp5ApsiGdsQXFlxUtalSJaZVtD8rW7kNKDckM7fIpSTity8zJ2
KQf7f5ef19+k3qrLLYDwo76xL7Q5o3SrFfvnORyEuE+XV781ikjr80OTMcAufc24
1zyNVqUWAe1ijcVE5ZnEHcJFTTUVzEZsklICcp3r3gf22IZaHY3DHoM78d9E3tRE
z7LnQGG6mU5ScRzz0J4bgAc+3ew3or8IHdDpeW04nCBjTg0F138ucsn2MI8yzHvw
GWpxFeSV6O9yxwIDAQABo4HHMIHEMAwGA1UdEwEB/wQCMAAwHQYDVR0OBBYEFAC2
dBgwH8DtGdQunrWofha2LwmsME0GA1UdIwRGMESAFOfsTNnHj/iXY+F4LhsR0IZJ
svlPoRakFDASMRAwDgYDVQQDDAdkZXZjZXJ0ghRnmAiAsNFQsOhpuFfgTbNW0W2P
9TAOBgNVHQ8BAf8EBAMCBaAwEwYDVR0lBAwwCgYIKwYBBQUHAwEwIQYDVR0RBBow
GIIJbG9jYWxob3N0ggsqLmxvY2FsaG9zdDANBgkqhkiG9w0BAQsFAAOCAQEAesle
lBhHnX4lBmA1ggQ19I4FGAOLT87lxOC7XyCquW+HHmfw7hgaOQQovC661vFxJIPo
nnot3jpaLopASpthDVw+TYiFKAvamJXnG3KJDiIgmmXJ0heIlPKA/+wD/i/Q5/4x
qU0OvvD8A1N0nostJS7R6S5rGSiAwEB0LMabQq5Xme47CH5uw9S2P98FGusqRjZa
vIti2ZdVU8kTElL/zEpwzCyYRuGgqAyUZzXJwkKVkZmwv7/QpA7ZqmzvPhUW2eLa
uDMrZONmcd/GgHo+JOq+sc3rVychSjQH9ZTAL+P37WmUoceuvd1pG6Lq/1gL78Op
mNMDmHwn69++vMEbGw==
-----END CERTIFICATE-----
